target datalayout = "e-m:e-p270:32:32-p271:32:32-p272:64:64-i64:64-i128:128-f80:128-n8:16:32:64-S128"
target triple = "x86_64-pc-linux-gnu"

%"struct.std::_Rb_tree_header" = type { %"struct.std::_Rb_tree_node_base", i64 }
%"struct.std::_Rb_tree_node_base" = type { i32, ptr, ptr, ptr }
%"class.std::vector.29" = type { %"struct.std::_Vector_base.30" }
%"struct.std::_Vector_base.30" = type { %"struct.std::_Vector_base<int, std::allocator<int>>::_Vector_impl" }
%"struct.std::_Vector_base<int, std::allocator<int>>::_Vector_impl" = type { %"struct.std::_Vector_base<int, std::allocator<int>>::_Vector_impl_data" }
%"struct.std::_Vector_base<int, std::allocator<int>>::_Vector_impl_data" = type { ptr, ptr, ptr }
%"struct.(anonymous namespace)::OutputWriter" = type { ptr, ptr }
%"class.std::basic_ofstream" = type { %"class.std::basic_ostream.base", %"class.std::basic_filebuf", %"class.std::basic_ios" }
%"class.std::basic_ostream.base" = type { ptr }
%"class.std::basic_filebuf" = type { %"class.std::basic_streambuf", %union.pthread_mutex_t, %"class.std::__basic_file", i32, %struct.__mbstate_t, %struct.__mbstate_t, %struct.__mbstate_t, ptr, i64, i8, i8, i8, i8, ptr, ptr, i8, ptr, ptr, i64, ptr, ptr }
%"class.std::basic_streambuf" = type { ptr, ptr, ptr, ptr, ptr, ptr, ptr, %"class.std::locale" }
%"class.std::locale" = type { ptr }
%union.pthread_mutex_t = type { %struct.__pthread_mutex_s }
%struct.__pthread_mutex_s = type { i32, i32, i32, i32, i32, i16, i16, %struct.__pthread_internal_list }
%struct.__pthread_internal_list = type { ptr, ptr }
%"class.std::__basic_file" = type <{ ptr, i8, [7 x i8] }>
%struct.__mbstate_t = type { i32, %union.anon.41 }
%union.anon.41 = type { i32 }
%"class.std::basic_ios" = type { %"class.std::ios_base", ptr, i8, i8, ptr, ptr, ptr, ptr }
%"class.std::ios_base" = type { ptr, i64, i64, i32, i32, i32, ptr, %"struct.std::ios_base::_Words", [8 x %"struct.std::ios_base::_Words"], i32, ptr, %"class.std::locale" }
%"struct.std::ios_base::_Words" = type { ptr, i64 }
%"struct.(anonymous namespace)::AIWWriter" = type { %"struct.(anonymous namespace)::OutputWriter", %"class.std::basic_ofstream", %"class.Yosys::hashlib::dict", %"class.Yosys::hashlib::dict.72", %"class.Yosys::hashlib::dict.72", %"class.Yosys::hashlib::dict.79", %"class.std::map.86" }
%"class.Yosys::hashlib::dict" = type <{ %"class.std::vector.29", %"class.std::vector.66", %"struct.Yosys::hashlib::hash_ops.71", [7 x i8] }>
%"class.std::vector.66" = type { %"struct.std::_Vector_base.67" }
%"struct.std::_Vector_base.67" = type { %"struct.std::_Vector_base<Yosys::hashlib::dict<int, std::pair<Yosys::RTLIL::SigBit, bool>>::entry_t, std::allocator<Yosys::hashlib::dict<int, std::pair<Yosys::RTLIL::SigBit, bool>>::entry_t>>::_Vector_impl" }
%"struct.std::_Vector_base<Yosys::hashlib::dict<int, std::pair<Yosys::RTLIL::SigBit, bool>>::entry_t, std::allocator<Yosys::hashlib::dict<int, std::pair<Yosys::RTLIL::SigBit, bool>>::entry_t>>::_Vector_impl" = type { %"struct.std::_Vector_base<Yosys::hashlib::dict<int, std::pair<Yosys::RTLIL::SigBit, bool>>::entry_t, std::allocator<Yosys::hashlib::dict<int, std::pair<Yosys::RTLIL::SigBit, bool>>::entry_t>>::_Vector_impl_data" }
%"struct.std::_Vector_base<Yosys::hashlib::dict<int, std::pair<Yosys::RTLIL::SigBit, bool>>::entry_t, std::allocator<Yosys::hashlib::dict<int, std::pair<Yosys::RTLIL::SigBit, bool>>::entry_t>>::_Vector_impl_data" = type { ptr, ptr, ptr }
%"struct.Yosys::hashlib::hash_ops.71" = type { i8 }
%"class.Yosys::hashlib::dict.72" = type <{ %"class.std::vector.29", %"class.std::vector.73", %"struct.Yosys::hashlib::hash_ops.71", [7 x i8] }>
%"class.std::vector.73" = type { %"struct.std::_Vector_base.74" }
%"struct.std::_Vector_base.74" = type { %"struct.std::_Vector_base<Yosys::hashlib::dict<int, Yosys::RTLIL::SigBit>::entry_t, std::allocator<Yosys::hashlib::dict<int, Yosys::RTLIL::SigBit>::entry_t>>::_Vector_impl" }
%"struct.std::_Vector_base<Yosys::hashlib::dict<int, Yosys::RTLIL::SigBit>::entry_t, std::allocator<Yosys::hashlib::dict<int, Yosys::RTLIL::SigBit>::entry_t>>::_Vector_impl" = type { %"struct.std::_Vector_base<Yosys::hashlib::dict<int, Yosys::RTLIL::SigBit>::entry_t, std::allocator<Yosys::hashlib::dict<int, Yosys::RTLIL::SigBit>::entry_t>>::_Vector_impl_data" }
%"struct.std::_Vector_base<Yosys::hashlib::dict<int, Yosys::RTLIL::SigBit>::entry_t, std::allocator<Yosys::hashlib::dict<int, Yosys::RTLIL::SigBit>::entry_t>>::_Vector_impl_data" = type { ptr, ptr, ptr }
%"class.Yosys::hashlib::dict.79" = type <{ %"class.std::vector.29", %"class.std::vector.80", %"struct.Yosys::hashlib::hash_ops.71", [7 x i8] }>
%"class.std::vector.80" = type { %"struct.std::_Vector_base.81" }
%"struct.std::_Vector_base.81" = type { %"struct.std::_Vector_base<Yosys::hashlib::dict<int, bool>::entry_t, std::allocator<Yosys::hashlib::dict<int, bool>::entry_t>>::_Vector_impl" }
%"struct.std::_Vector_base<Yosys::hashlib::dict<int, bool>::entry_t, std::allocator<Yosys::hashlib::dict<int, bool>::entry_t>>::_Vector_impl" = type { %"struct.std::_Vector_base<Yosys::hashlib::dict<int, bool>::entry_t, std::allocator<Yosys::hashlib::dict<int, bool>::entry_t>>::_Vector_impl_data" }
%"struct.std::_Vector_base<Yosys::hashlib::dict<int, bool>::entry_t, std::allocator<Yosys::hashlib::dict<int, bool>::entry_t>>::_Vector_impl_data" = type { ptr, ptr, ptr }
%"class.std::map.86" = type { %"class.std::_Rb_tree.87" }
%"class.std::_Rb_tree.87" = type { %"struct.std::_Rb_tree<Yosys::RTLIL::Wire *, std::pair<Yosys::RTLIL::Wire *const, int>, std::_Select1st<std::pair<Yosys::RTLIL::Wire *const, int>>, std::less<Yosys::RTLIL::Wire *>>::_Rb_tree_impl" }
%"struct.std::_Rb_tree<Yosys::RTLIL::Wire *, std::pair<Yosys::RTLIL::Wire *const, int>, std::_Select1st<std::pair<Yosys::RTLIL::Wire *const, int>>, std::less<Yosys::RTLIL::Wire *>>::_Rb_tree_impl" = type { %"struct.std::_Rb_tree_key_compare.91", %"struct.std::_Rb_tree_header" }
%"struct.std::_Rb_tree_key_compare.91" = type { %"struct.std::less.92" }
%"struct.std::less.92" = type { i8 }
%class.anon.496 = type { ptr }

; Function Attrs: mustprogress uwtable
define internal void @_ZZN12_GLOBAL__N_19AIWWriter5writeERSt3mapIibSt4lessIiESaISt4pairIKibEEEENKUlPKciPN5Yosys5RTLIL4WireEibE_clESB_iSF_ib(ptr noundef nonnull align 8 dereferenceable(8) %0, ptr noundef %1, i32 noundef %2, ptr noundef %3, i32 noundef %4, i1 noundef zeroext %5) #4 align 2 {
  %7 = alloca ptr, align 8
  %8 = alloca ptr, align 8
  %9 = alloca i32, align 4
  %10 = alloca ptr, align 8
  %11 = alloca i32, align 4
  %12 = alloca i8, align 1
  store ptr %0, ptr %7, align 8
  store ptr %1, ptr %8, align 8
  store i32 %2, ptr %9, align 4
  store ptr %3, ptr %10, align 8
  store i32 %4, ptr %11, align 4
  %13 = zext i1 %5 to i8
  store i8 %13, ptr %12, align 1
  %14 = load ptr, ptr %7, align 8
  %15 = getelementptr inbounds %class.anon.496, ptr %14, i32 0, i32 0
  %16 = load ptr, ptr %15, align 8
  %17 = load ptr, ptr %10, align 8
  %18 = icmp ne ptr %17, null
  br i1 %18, label %19, label %23

19:                                               ; preds = %6
  %20 = load i32, ptr %11, align 4
  %21 = getelementptr inbounds %"struct.(anonymous namespace)::AIWWriter", ptr %16, i32 0, i32 6
  %22 = call noundef nonnull align 4 dereferenceable(4) ptr @_ZNSt3mapIPN5Yosys5RTLIL4WireEiSt4lessIS3_ESaISt4pairIKS3_iEEEixERS7_(ptr noundef nonnull align 8 dereferenceable(48) %21, ptr noundef nonnull align 8 dereferenceable(8) %10)
  store i32 %20, ptr %22, align 4
  br label %23

23:                                               ; preds = %19, %6
  ret void
}

; Function Attrs: mustprogress nounwind uwtable
define linkonce_odr noundef ptr @_ZNKSt9_Any_data9_M_accessEv(ptr noundef nonnull align 8 dereferenceable(16) %0) #5 comdat align 2 {
  %2 = alloca ptr, align 8
  store ptr %0, ptr %2, align 8
  %3 = load ptr, ptr %2, align 8
  %4 = getelementptr inbounds [16 x i8], ptr %3, i64 0, i64 0
  ret ptr %4
}

; Function Attrs: mustprogress uwtable
define internal void @_ZSt13__invoke_implIvRZN12_GLOBAL__N_19AIWWriter5writeERSt3mapIibSt4lessIiESaISt4pairIKibEEEEUlPKciPN5Yosys5RTLIL4WireEibE_JSC_iSG_ibEET_St14__invoke_otherOT0_DpOT1_(ptr noundef nonnull align 8 dereferenceable(8) %0, ptr noundef nonnull align 8 dereferenceable(8) %1, ptr noundef nonnull align 4 dereferenceable(4) %2, ptr noundef nonnull align 8 dereferenceable(8) %3, ptr noundef nonnull align 4 dereferenceable(4) %4, ptr noundef nonnull align 1 dereferenceable(1) %5) #4 {
  %7 = alloca ptr, align 8
  %8 = alloca ptr, align 8
  %9 = alloca ptr, align 8
  %10 = alloca ptr, align 8
  %11 = alloca ptr, align 8
  %12 = alloca ptr, align 8
  store ptr %0, ptr %7, align 8
  store ptr %1, ptr %8, align 8
  store ptr %2, ptr %9, align 8
  store ptr %3, ptr %10, align 8
  store ptr %4, ptr %11, align 8
  store ptr %5, ptr %12, align 8
  %13 = load ptr, ptr %7, align 8
  %14 = load ptr, ptr %8, align 8
  %15 = load ptr, ptr %14, align 8
  %16 = load ptr, ptr %9, align 8
  %17 = load i32, ptr %16, align 4
  %18 = load ptr, ptr %10, align 8
  %19 = load ptr, ptr %18, align 8
  %20 = load ptr, ptr %11, align 8
  %21 = load i32, ptr %20, align 4
  %22 = load ptr, ptr %12, align 8
  %23 = load i8, ptr %22, align 1
  %24 = trunc i8 %23 to i1
  call void @_ZZN12_GLOBAL__N_19AIWWriter5writeERSt3mapIibSt4lessIiESaISt4pairIKibEEEENKUlPKciPN5Yosys5RTLIL4WireEibE_clESB_iSF_ib(ptr noundef nonnull align 8 dereferenceable(8) %13, ptr noundef %15, i32 noundef %17, ptr noundef %19, i32 noundef %21, i1 noundef zeroext %24)
  ret void
}

; Function Attrs: mustprogress nounwind uwtable
define internal noundef nonnull align 8 dereferenceable(8) ptr @_ZNKSt9_Any_data9_M_accessIZN12_GLOBAL__N_19AIWWriter5writeERSt3mapIibSt4lessIiESaISt4pairIKibEEEEUlPKciPN5Yosys5RTLIL4WireEibE_EERKT_v(ptr noundef nonnull align 8 dereferenceable(16) %0) #5 align 2 {
  %2 = alloca ptr, align 8
  store ptr %0, ptr %2, align 8
  %3 = load ptr, ptr %2, align 8
  %4 = call noundef ptr @_ZNKSt9_Any_data9_M_accessEv(ptr noundef nonnull align 8 dereferenceable(16) %3) #3
  ret ptr %4
}

; Function Attrs: mustprogress uwtable
define internal void @_ZSt10__invoke_rIvRZN12_GLOBAL__N_19AIWWriter5writeERSt3mapIibSt4lessIiESaISt4pairIKibEEEEUlPKciPN5Yosys5RTLIL4WireEibE_JSC_iSG_ibEENSt9enable_ifIXsr6__and_ISt7is_voidIT_ESt14__is_invocableIT0_JDpT1_EEEE5valueESL_E4typeEOSO_DpOSP_(ptr noundef nonnull align 8 dereferenceable(8) %0, ptr noundef nonnull align 8 dereferenceable(8) %1, ptr noundef nonnull align 4 dereferenceable(4) %2, ptr noundef nonnull align 8 dereferenceable(8) %3, ptr noundef nonnull align 4 dereferenceable(4) %4, ptr noundef nonnull align 1 dereferenceable(1) %5) #4 {
  %7 = alloca ptr, align 8
  %8 = alloca ptr, align 8
  %9 = alloca ptr, align 8
  %10 = alloca ptr, align 8
  %11 = alloca ptr, align 8
  %12 = alloca ptr, align 8
  store ptr %0, ptr %7, align 8
  store ptr %1, ptr %8, align 8
  store ptr %2, ptr %9, align 8
  store ptr %3, ptr %10, align 8
  store ptr %4, ptr %11, align 8
  store ptr %5, ptr %12, align 8
  %13 = load ptr, ptr %7, align 8
  %14 = load ptr, ptr %8, align 8
  %15 = load ptr, ptr %9, align 8
  %16 = load ptr, ptr %10, align 8
  %17 = load ptr, ptr %11, align 8
  %18 = load ptr, ptr %12, align 8
  call void @_ZSt13__invoke_implIvRZN12_GLOBAL__N_19AIWWriter5writeERSt3mapIibSt4lessIiESaISt4pairIKibEEEEUlPKciPN5Yosys5RTLIL4WireEibE_JSC_iSG_ibEET_St14__invoke_otherOT0_DpOT1_(ptr noundef nonnull align 8 dereferenceable(8) %13, ptr noundef nonnull align 8 dereferenceable(8) %14, ptr noundef nonnull align 4 dereferenceable(4) %15, ptr noundef nonnull align 8 dereferenceable(8) %16, ptr noundef nonnull align 4 dereferenceable(4) %17, ptr noundef nonnull align 1 dereferenceable(1) %18)
  ret void
}

; Function Attrs: mustprogress nounwind uwtable
define internal noundef ptr @_ZNSt14_Function_base13_Base_managerIZN12_GLOBAL__N_19AIWWriter5writeERSt3mapIibSt4lessIiESaISt4pairIKibEEEEUlPKciPN5Yosys5RTLIL4WireEibE_E14_M_get_pointerERKSt9_Any_data(ptr noundef nonnull align 8 dereferenceable(16) %0) #5 align 2 {
  %2 = alloca ptr, align 8
  %3 = alloca ptr, align 8
  store ptr %0, ptr %2, align 8
  %4 = load ptr, ptr %2, align 8
  %5 = call noundef nonnull align 8 dereferenceable(8) ptr @_ZNKSt9_Any_data9_M_accessIZN12_GLOBAL__N_19AIWWriter5writeERSt3mapIibSt4lessIiESaISt4pairIKibEEEEUlPKciPN5Yosys5RTLIL4WireEibE_EERKT_v(ptr noundef nonnull align 8 dereferenceable(16) %4) #3
  store ptr %5, ptr %3, align 8
  %6 = load ptr, ptr %3, align 8
  ret ptr %6
}

; Function Attrs: mustprogress uwtable
define internal void @_ZNSt17_Function_handlerIFvPKciPN5Yosys5RTLIL4WireEibEZN12_GLOBAL__N_19AIWWriter5writeERSt3mapIibSt4lessIiESaISt4pairIKibEEEEUlS1_iS5_ibE_E9_M_invokeERKSt9_Any_dataOS1_OiOS5_SO_Ob(ptr noundef nonnull align 8 dereferenceable(16) %0, ptr noundef nonnull align 8 dereferenceable(8) %1, ptr noundef nonnull align 4 dereferenceable(4) %2, ptr noundef nonnull align 8 dereferenceable(8) %3, ptr noundef nonnull align 4 dereferenceable(4) %4, ptr noundef nonnull align 1 dereferenceable(1) %5) #4 align 2 {
  %7 = alloca ptr, align 8
  %8 = alloca ptr, align 8
  %9 = alloca ptr, align 8
  %10 = alloca ptr, align 8
  %11 = alloca ptr, align 8
  %12 = alloca ptr, align 8
  store ptr %0, ptr %7, align 8
  store ptr %1, ptr %8, align 8
  store ptr %2, ptr %9, align 8
  store ptr %3, ptr %10, align 8
  store ptr %4, ptr %11, align 8
  store ptr %5, ptr %12, align 8
  %13 = load ptr, ptr %7, align 8
  %14 = call noundef ptr @_ZNSt14_Function_base13_Base_managerIZN12_GLOBAL__N_19AIWWriter5writeERSt3mapIibSt4lessIiESaISt4pairIKibEEEEUlPKciPN5Yosys5RTLIL4WireEibE_E14_M_get_pointerERKSt9_Any_data(ptr noundef nonnull align 8 dereferenceable(16) %13) #3
  %15 = load ptr, ptr %8, align 8
  %16 = load ptr, ptr %9, align 8
  %17 = load ptr, ptr %10, align 8
  %18 = load ptr, ptr %11, align 8
  %19 = load ptr, ptr %12, align 8
  call void @_ZSt10__invoke_rIvRZN12_GLOBAL__N_19AIWWriter5writeERSt3mapIibSt4lessIiESaISt4pairIKibEEEEUlPKciPN5Yosys5RTLIL4WireEibE_JSC_iSG_ibEENSt9enable_ifIXsr6__and_ISt7is_voidIT_ESt14__is_invocableIT0_JDpT1_EEEE5valueESL_E4typeEOSO_DpOSP_(ptr noundef nonnull align 8 dereferenceable(8) %14, ptr noundef nonnull align 8 dereferenceable(8) %15, ptr noundef nonnull align 4 dereferenceable(4) %16, ptr noundef nonnull align 8 dereferenceable(8) %17, ptr noundef nonnull align 4 dereferenceable(4) %18, ptr noundef nonnull align 1 dereferenceable(1) %19)
  ret void
}