; Function Attrs: mustprogress uwtable
define internal void @_ZNSt17_Function_handlerIFvPKciPN5Yosys5RTLIL4WireEibEZN12_GLOBAL__N_19AIWWriter5writeERSt3mapIibSt4lessIiESaISt4pairIKibEEEEUlS1_iS5_ibE_E9_M_invokeERKSt9_Any_dataOS1_OiOS5_SO_Ob(ptr nocapture noundef nonnull readonly align 8 dereferenceable(16) %0, ptr nocapture nonnull readnone align 8 %1, ptr nocapture nonnull readonly align 4 %2, ptr nocapture noundef nonnull readonly align 8 dereferenceable(8) %3, ptr nocapture noundef nonnull readonly align 4 dereferenceable(4) %4, ptr nocapture nonnull readonly align 1 %5) #4 align 2 {
  %7 = alloca ptr, align 8
  %.val = load ptr, ptr %0, align 8
  %.val7 = load ptr, ptr %3, align 8
  %.val8 = load i32, ptr %4, align 4
  call void @llvm.lifetime.start.p0(i64 8, ptr nonnull %7)
  store ptr %.val7, ptr %7, align 8
  %.not.i.i.i = icmp eq ptr %.val7, null
  br i1 %.not.i.i.i, label %_ZSt10__invoke_rIvRZN12_GLOBAL__N_19AIWWriter5writeERSt3mapIibSt4lessIiESaISt4pairIKibEEEEUlPKciPN5Yosys5RTLIL4WireEibE_JSC_iSG_ibEENSt9enable_ifIXsr6__and_ISt7is_voidIT_ESt14__is_invocableIT0_JDpT1_EEEE5valueESL_E4typeEOSO_DpOSP_.exit, label %8

8:                                                ; preds = %6
  %9 = getelementptr inbounds i8, ptr %.val, i64 752
  %10 = call noundef nonnull align 4 dereferenceable(4) ptr @_ZNSt3mapIPN5Yosys5RTLIL4WireEiSt4lessIS3_ESaISt4pairIKS3_iEEEixERS7_(ptr noundef nonnull align 8 dereferenceable(48) %9, ptr noundef nonnull align 8 dereferenceable(8) %7)
  store i32 %.val8, ptr %10, align 4
  br label %_ZSt10__invoke_rIvRZN12_GLOBAL__N_19AIWWriter5writeERSt3mapIibSt4lessIiESaISt4pairIKibEEEEUlPKciPN5Yosys5RTLIL4WireEibE_JSC_iSG_ibEENSt9enable_ifIXsr6__and_ISt7is_voidIT_ESt14__is_invocableIT0_JDpT1_EEEE5valueESL_E4typeEOSO_DpOSP_.exit

_ZSt10__invoke_rIvRZN12_GLOBAL__N_19AIWWriter5writeERSt3mapIibSt4lessIiESaISt4pairIKibEEEEUlPKciPN5Yosys5RTLIL4WireEibE_JSC_iSG_ibEENSt9enable_ifIXsr6__and_ISt7is_voidIT_ESt14__is_invocableIT0_JDpT1_EEEE5valueESL_E4typeEOSO_DpOSP_.exit: ; preds = %6, %8
  call void @llvm.lifetime.end.p0(i64 8, ptr nonnull %7)
  ret void
}